; Function Attrs: nounwind uwtable
define hidden zeroext i1 @SDL_AudioDevicePaused_REAL(i32 noundef %0) local_unnamed_addr #0 {
  %2 = alloca ptr, align 8
  call void @llvm.lifetime.start.p0(i64 8, ptr nonnull %2) #14
  store ptr null, ptr %2, align 8
  %3 = call fastcc ptr @ObtainLogicalAudioDevice(i32 noundef %0, ptr noundef %2)
  %.not = icmp eq ptr %3, null
  br i1 %.not, label %7, label %4

4:                                                ; preds = %1
  %5 = getelementptr inbounds nuw i8, ptr %3, i64 16
  %6 = tail call i32 @SDL_GetAtomicInt_REAL(ptr noundef nonnull %5) #14
  %.not4 = icmp ne i32 %6, 0
  br label %7

7:                                                ; preds = %4, %1
  %.0 = phi i1 [ false, %1 ], [ %.not4, %4 ]
  %8 = load ptr, ptr %2, align 8
  tail call fastcc void @ReleaseAudioDevice(ptr noundef %8)
  call void @llvm.lifetime.end.p0(i64 8, ptr nonnull %2) #14
  ret i1 %.0
}